; Function Attrs: mustprogress nofree norecurse nosync nounwind willreturn memory(argmem: readwrite) uwtable
define void @dt_printing_get_image_pos_mm(ptr noundef readonly captures(none) %0, ptr noundef readonly captures(none) %1, ptr noundef writeonly captures(none) initializes((0, 16)) %2) local_unnamed_addr #5 {
  %4 = alloca %struct._image_pos, align 4
  call void @llvm.lifetime.start.p0(i64 16, ptr nonnull %4) #10
  call void @llvm.memset.p0.i64(ptr noundef nonnull align 4 dereferenceable(16) %4, i8 0, i64 16, i1 false)
  %5 = getelementptr inbounds nuw i8, ptr %1, i64 56
  %6 = getelementptr inbounds nuw i8, ptr %1, i64 36
  %7 = load i32, ptr %6, align 4, !tbaa !6
  %8 = getelementptr inbounds nuw i8, ptr %1, i64 20
  %9 = load i32, ptr %8, align 4, !tbaa !85
  %10 = getelementptr inbounds nuw i8, ptr %1, i64 24
  %11 = load i32, ptr %10, align 8, !tbaa !86
  call void @_align_pos(ptr noundef nonnull readonly %5, i32 noundef %7, i32 noundef %9, i32 noundef %11, ptr noundef nonnull %4)
  %12 = getelementptr inbounds nuw i8, ptr %0, i64 1952
  %13 = load float, ptr %12, align 8, !tbaa !24
  %14 = getelementptr inbounds nuw i8, ptr %0, i64 1956
  %15 = load float, ptr %14, align 4, !tbaa !25
  %16 = getelementptr inbounds nuw i8, ptr %0, i64 1960
  %17 = load float, ptr %16, align 8, !tbaa !26
  %18 = getelementptr inbounds nuw i8, ptr %0, i64 1964
  %19 = load float, ptr %18, align 4, !tbaa !27
  %20 = load float, ptr %4, align 4, !tbaa !28
  %21 = fsub reassoc nsz arcp contract afn float %20, %13
  %22 = getelementptr inbounds nuw i8, ptr %4, i64 4
  %23 = load float, ptr %22, align 4, !tbaa !29
  %24 = fsub reassoc nsz arcp contract afn float %23, %15
  %25 = getelementptr inbounds nuw i8, ptr %4, i64 8
  %26 = load float, ptr %25, align 4, !tbaa !30
  %27 = getelementptr inbounds nuw i8, ptr %4, i64 12
  %28 = load float, ptr %27, align 4, !tbaa !31
  call void @llvm.lifetime.end.p0(i64 16, ptr nonnull %4) #10
  %29 = getelementptr inbounds nuw i8, ptr %0, i64 1944
  %30 = load float, ptr %29, align 8, !tbaa !79
  %31 = fmul reassoc nsz arcp contract afn float %30, %21
  %32 = fdiv reassoc nsz arcp contract afn float %31, %17
  store float %32, ptr %2, align 4, !tbaa !28
  %33 = getelementptr inbounds nuw i8, ptr %0, i64 1948
  %34 = load float, ptr %33, align 4, !tbaa !80
  %35 = fmul reassoc nsz arcp contract afn float %34, %24
  %36 = fdiv reassoc nsz arcp contract afn float %35, %19
  %37 = getelementptr inbounds nuw i8, ptr %2, i64 4
  store float %36, ptr %37, align 4, !tbaa !29
  %38 = fmul reassoc nsz arcp contract afn float %30, %26
  %39 = fdiv reassoc nsz arcp contract afn float %38, %17
  %40 = getelementptr inbounds nuw i8, ptr %2, i64 8
  store float %39, ptr %40, align 4, !tbaa !30
  %41 = fmul reassoc nsz arcp contract afn float %34, %28
  %42 = fdiv reassoc nsz arcp contract afn float %41, %19
  %43 = getelementptr inbounds nuw i8, ptr %2, i64 12
  store float %42, ptr %43, align 4, !tbaa !31
  ret void
}